target datalayout = "e-m:e-p270:32:32-p271:32:32-p272:64:64-i64:64-i128:128-f80:128-n8:16:32:64-S128"
target triple = "x86_64-pc-linux-gnu"

%struct.ossl_cmp_msg_st = type { ptr, ptr, ptr, ptr, ptr, ptr }

@.str = private unnamed_addr constant [32 x i8] c"../openssl/crypto/cmp/cmp_msg.c\00", align 1
@__func__.OSSL_CMP_MSG_read = private unnamed_addr constant [18 x i8] c"OSSL_CMP_MSG_read\00", align 1
@.str.30 = private unnamed_addr constant [3 x i8] c"rb\00", align 1

; Function Attrs: nounwind uwtable
define i32 @ossl_cmp_msg_set0_libctx(ptr noundef %0, ptr noundef %1, ptr noundef %2) #0 {
  %4 = alloca i32, align 4
  %5 = alloca ptr, align 8
  %6 = alloca ptr, align 8
  %7 = alloca ptr, align 8
  store ptr %0, ptr %5, align 8, !tbaa !10
  store ptr %1, ptr %6, align 8, !tbaa !3
  store ptr %2, ptr %7, align 8, !tbaa !8
  %8 = load ptr, ptr %5, align 8, !tbaa !10
  %9 = icmp ne ptr %8, null
  br i1 %9, label %10, label %33

10:                                               ; preds = %3
  %11 = load ptr, ptr %6, align 8, !tbaa !3
  %12 = load ptr, ptr %5, align 8, !tbaa !10
  %13 = getelementptr inbounds nuw %struct.ossl_cmp_msg_st, ptr %12, i32 0, i32 4
  store ptr %11, ptr %13, align 8, !tbaa !12
  %14 = load ptr, ptr %5, align 8, !tbaa !10
  %15 = getelementptr inbounds nuw %struct.ossl_cmp_msg_st, ptr %14, i32 0, i32 5
  %16 = load ptr, ptr %15, align 8, !tbaa !18
  call void @CRYPTO_free(ptr noundef %16, ptr noundef @.str, i32 noundef 54)
  %17 = load ptr, ptr %5, align 8, !tbaa !10
  %18 = getelementptr inbounds nuw %struct.ossl_cmp_msg_st, ptr %17, i32 0, i32 5
  store ptr null, ptr %18, align 8, !tbaa !18
  %19 = load ptr, ptr %7, align 8, !tbaa !8
  %20 = icmp ne ptr %19, null
  br i1 %20, label %21, label %32

21:                                               ; preds = %10
  %22 = load ptr, ptr %7, align 8, !tbaa !8
  %23 = call noalias ptr @CRYPTO_strdup(ptr noundef %22, ptr noundef @.str, i32 noundef 57)
  %24 = load ptr, ptr %5, align 8, !tbaa !10
  %25 = getelementptr inbounds nuw %struct.ossl_cmp_msg_st, ptr %24, i32 0, i32 5
  store ptr %23, ptr %25, align 8, !tbaa !18
  %26 = load ptr, ptr %5, align 8, !tbaa !10
  %27 = getelementptr inbounds nuw %struct.ossl_cmp_msg_st, ptr %26, i32 0, i32 5
  %28 = load ptr, ptr %27, align 8, !tbaa !18
  %29 = icmp eq ptr %28, null
  br i1 %29, label %30, label %31

30:                                               ; preds = %21
  store i32 0, ptr %4, align 4
  br label %34

31:                                               ; preds = %21
  br label %32

32:                                               ; preds = %31, %10
  br label %33

33:                                               ; preds = %32, %3
  store i32 1, ptr %4, align 4
  br label %34

34:                                               ; preds = %33, %30
  %35 = load i32, ptr %4, align 4
  ret i32 %35
}

; Function Attrs: nounwind uwtable
define void @OSSL_CMP_MSG_free(ptr noundef %0) #0 {
  %2 = alloca ptr, align 8
  store ptr %0, ptr %2, align 8, !tbaa !10
  %3 = load ptr, ptr %2, align 8, !tbaa !10
  %4 = call ptr @OSSL_CMP_MSG_it()
  call void @ASN1_item_free(ptr noundef %3, ptr noundef %4)
  ret void
}

; Function Attrs: nounwind uwtable
define ptr @d2i_OSSL_CMP_MSG_bio(ptr noundef %0, ptr noundef %1) #0 {
  %3 = alloca ptr, align 8
  %4 = alloca ptr, align 8
  %5 = alloca ptr, align 8
  %6 = alloca ptr, align 8
  store ptr %0, ptr %3, align 8, !tbaa !109
  store ptr %1, ptr %4, align 8, !tbaa !181
  call void @llvm.lifetime.start.p0(i64 8, ptr %5) #6
  store ptr null, ptr %5, align 8, !tbaa !3
  call void @llvm.lifetime.start.p0(i64 8, ptr %6) #6
  store ptr null, ptr %6, align 8, !tbaa !8
  %7 = load ptr, ptr %4, align 8, !tbaa !181
  %8 = icmp ne ptr %7, null
  br i1 %8, label %9, label %22

9:                                                ; preds = %2
  %10 = load ptr, ptr %4, align 8, !tbaa !181
  %11 = load ptr, ptr %10, align 8, !tbaa !10
  %12 = icmp ne ptr %11, null
  br i1 %12, label %13, label %22

13:                                               ; preds = %9
  %14 = load ptr, ptr %4, align 8, !tbaa !181
  %15 = load ptr, ptr %14, align 8, !tbaa !10
  %16 = getelementptr inbounds nuw %struct.ossl_cmp_msg_st, ptr %15, i32 0, i32 4
  %17 = load ptr, ptr %16, align 8, !tbaa !12
  store ptr %17, ptr %5, align 8, !tbaa !3
  %18 = load ptr, ptr %4, align 8, !tbaa !181
  %19 = load ptr, ptr %18, align 8, !tbaa !10
  %20 = getelementptr inbounds nuw %struct.ossl_cmp_msg_st, ptr %19, i32 0, i32 5
  %21 = load ptr, ptr %20, align 8, !tbaa !18
  store ptr %21, ptr %6, align 8, !tbaa !8
  br label %22

22:                                               ; preds = %13, %9, %2
  %23 = call ptr @OSSL_CMP_MSG_it()
  %24 = load ptr, ptr %3, align 8, !tbaa !109
  %25 = load ptr, ptr %4, align 8, !tbaa !181
  %26 = load ptr, ptr %5, align 8, !tbaa !3
  %27 = load ptr, ptr %6, align 8, !tbaa !8
  %28 = call ptr @ASN1_item_d2i_bio_ex(ptr noundef %23, ptr noundef %24, ptr noundef %25, ptr noundef %26, ptr noundef %27)
  call void @llvm.lifetime.end.p0(i64 8, ptr %6) #6
  call void @llvm.lifetime.end.p0(i64 8, ptr %5) #6
  ret ptr %28
}

; Function Attrs: nounwind uwtable
define ptr @OSSL_CMP_MSG_new(ptr noundef %0, ptr noundef %1) #0 {
  %3 = alloca ptr, align 8
  %4 = alloca ptr, align 8
  %5 = alloca ptr, align 8
  store ptr %0, ptr %3, align 8, !tbaa !3
  store ptr %1, ptr %4, align 8, !tbaa !8
  call void @llvm.lifetime.start.p0(i64 8, ptr %5) #6
  store ptr null, ptr %5, align 8, !tbaa !10
  %6 = call ptr @OSSL_CMP_MSG_it()
  %7 = load ptr, ptr %3, align 8, !tbaa !3
  %8 = load ptr, ptr %4, align 8, !tbaa !8
  %9 = call ptr @ASN1_item_new_ex(ptr noundef %6, ptr noundef %7, ptr noundef %8)
  store ptr %9, ptr %5, align 8, !tbaa !10
  %10 = load ptr, ptr %5, align 8, !tbaa !10
  %11 = load ptr, ptr %3, align 8, !tbaa !3
  %12 = load ptr, ptr %4, align 8, !tbaa !8
  %13 = call i32 @ossl_cmp_msg_set0_libctx(ptr noundef %10, ptr noundef %11, ptr noundef %12)
  %14 = icmp ne i32 %13, 0
  br i1 %14, label %17, label %15

15:                                               ; preds = %2
  %16 = load ptr, ptr %5, align 8, !tbaa !10
  call void @OSSL_CMP_MSG_free(ptr noundef %16)
  store ptr null, ptr %5, align 8, !tbaa !10
  br label %17

17:                                               ; preds = %15, %2
  %18 = load ptr, ptr %5, align 8, !tbaa !10
  call void @llvm.lifetime.end.p0(i64 8, ptr %5) #6
  ret ptr %18
}

; Function Attrs: nounwind uwtable
define ptr @OSSL_CMP_MSG_read(ptr noundef %0, ptr noundef %1, ptr noundef %2) #0 {
  %4 = alloca ptr, align 8
  %5 = alloca ptr, align 8
  %6 = alloca ptr, align 8
  %7 = alloca ptr, align 8
  %8 = alloca ptr, align 8
  %9 = alloca ptr, align 8
  %10 = alloca i32, align 4
  store ptr %0, ptr %5, align 8, !tbaa !8
  store ptr %1, ptr %6, align 8, !tbaa !3
  store ptr %2, ptr %7, align 8, !tbaa !8
  call void @llvm.lifetime.start.p0(i64 8, ptr %8) #6
  call void @llvm.lifetime.start.p0(i64 8, ptr %9) #6
  store ptr null, ptr %9, align 8, !tbaa !109
  %11 = load ptr, ptr %5, align 8, !tbaa !8
  %12 = icmp eq ptr %11, null
  br i1 %12, label %13, label %14

13:                                               ; preds = %3
  call void @ERR_new()
  call void @ERR_set_debug(ptr noundef @.str, i32 noundef 1209, ptr noundef @__func__.OSSL_CMP_MSG_read)
  call void (i32, i32, ptr, ...) @ERR_set_error(i32 noundef 58, i32 noundef 103, ptr noundef null)
  store ptr null, ptr %4, align 8
  store i32 1, ptr %10, align 4
  br label %35

14:                                               ; preds = %3
  %15 = load ptr, ptr %6, align 8, !tbaa !3
  %16 = load ptr, ptr %7, align 8, !tbaa !8
  %17 = call ptr @OSSL_CMP_MSG_new(ptr noundef %15, ptr noundef %16)
  store ptr %17, ptr %8, align 8, !tbaa !10
  %18 = load ptr, ptr %8, align 8, !tbaa !10
  %19 = icmp eq ptr %18, null
  br i1 %19, label %20, label %21

20:                                               ; preds = %14
  call void @ERR_new()
  call void @ERR_set_debug(ptr noundef @.str, i32 noundef 1215, ptr noundef @__func__.OSSL_CMP_MSG_read)
  call void (i32, i32, ptr, ...) @ERR_set_error(i32 noundef 58, i32 noundef 524346, ptr noundef null)
  store ptr null, ptr %4, align 8
  store i32 1, ptr %10, align 4
  br label %35

21:                                               ; preds = %14
  %22 = load ptr, ptr %5, align 8, !tbaa !8
  %23 = call ptr @BIO_new_file(ptr noundef %22, ptr noundef @.str.30)
  store ptr %23, ptr %9, align 8, !tbaa !109
  %24 = icmp eq ptr %23, null
  br i1 %24, label %29, label %25

25:                                               ; preds = %21
  %26 = load ptr, ptr %9, align 8, !tbaa !109
  %27 = call ptr @d2i_OSSL_CMP_MSG_bio(ptr noundef %26, ptr noundef %8)
  %28 = icmp eq ptr %27, null
  br i1 %28, label %29, label %31

29:                                               ; preds = %25, %21
  %30 = load ptr, ptr %8, align 8, !tbaa !10
  call void @OSSL_CMP_MSG_free(ptr noundef %30)
  store ptr null, ptr %8, align 8, !tbaa !10
  br label %31

31:                                               ; preds = %29, %25
  %32 = load ptr, ptr %9, align 8, !tbaa !109
  %33 = call i32 @BIO_free(ptr noundef %32)
  %34 = load ptr, ptr %8, align 8, !tbaa !10
  store ptr %34, ptr %4, align 8
  store i32 1, ptr %10, align 4
  br label %35

35:                                               ; preds = %31, %20, %13
  call void @llvm.lifetime.end.p0(i64 8, ptr %9) #6
  call void @llvm.lifetime.end.p0(i64 8, ptr %8) #6
  %36 = load ptr, ptr %4, align 8
  ret ptr %36
}