; Function Attrs: nounwind uwtable
define ptr @OSSL_CMP_MSG_read(ptr noundef %0, ptr noundef %1, ptr noundef %2) local_unnamed_addr #0 {
  %4 = alloca ptr, align 8
  call void @llvm.lifetime.start.p0(i64 8, ptr nonnull %4) #7
  %5 = icmp eq ptr %0, null
  br i1 %5, label %6, label %7

6:                                                ; preds = %3
  tail call void @ERR_new() #7
  tail call void @ERR_set_debug(ptr noundef nonnull @.str, i32 noundef 1209, ptr noundef nonnull @__func__.OSSL_CMP_MSG_read) #7
  tail call void (i32, i32, ptr, ...) @ERR_set_error(i32 noundef 58, i32 noundef 103, ptr noundef null) #7
  br label %34

7:                                                ; preds = %3
  %8 = tail call ptr @OSSL_CMP_MSG_it() #7
  %9 = tail call ptr @ASN1_item_new_ex(ptr noundef %8, ptr noundef %1, ptr noundef %2) #7
  %.not.i.i = icmp eq ptr %9, null
  br i1 %.not.i.i, label %19, label %10

10:                                               ; preds = %7
  %11 = getelementptr inbounds nuw i8, ptr %9, i64 32
  store ptr %1, ptr %11, align 8, !tbaa !3
  %12 = getelementptr inbounds nuw i8, ptr %9, i64 40
  %13 = load ptr, ptr %12, align 8, !tbaa !14
  tail call void @CRYPTO_free(ptr noundef %13, ptr noundef nonnull @.str, i32 noundef 54) #7
  store ptr null, ptr %12, align 8, !tbaa !14
  %.not11.i.i = icmp eq ptr %2, null
  br i1 %.not11.i.i, label %20, label %14

14:                                               ; preds = %10
  %15 = tail call noalias ptr @CRYPTO_strdup(ptr noundef nonnull %2, ptr noundef nonnull @.str, i32 noundef 57) #7
  store ptr %15, ptr %12, align 8, !tbaa !14
  %16 = icmp eq ptr %15, null
  br i1 %16, label %17, label %20

17:                                               ; preds = %14
  %18 = tail call ptr @OSSL_CMP_MSG_it() #7
  tail call void @ASN1_item_free(ptr noundef nonnull %9, ptr noundef %18) #7
  br label %19

19:                                               ; preds = %17, %7
  tail call void @ERR_new() #7
  tail call void @ERR_set_debug(ptr noundef nonnull @.str, i32 noundef 1215, ptr noundef nonnull @__func__.OSSL_CMP_MSG_read) #7
  tail call void (i32, i32, ptr, ...) @ERR_set_error(i32 noundef 58, i32 noundef 524346, ptr noundef null) #7
  br label %34

20:                                               ; preds = %14, %10
  store ptr %9, ptr %4, align 8, !tbaa !121
  %21 = tail call ptr @BIO_new_file(ptr noundef nonnull %0, ptr noundef nonnull @.str.30) #7
  %22 = icmp eq ptr %21, null
  br i1 %22, label %28, label %d2i_OSSL_CMP_MSG_bio.exit

d2i_OSSL_CMP_MSG_bio.exit:                        ; preds = %20
  %23 = load ptr, ptr %12, align 8, !tbaa !14
  %24 = load ptr, ptr %11, align 8, !tbaa !3
  %25 = tail call ptr @OSSL_CMP_MSG_it() #7
  %26 = call ptr @ASN1_item_d2i_bio_ex(ptr noundef %25, ptr noundef nonnull %21, ptr noundef nonnull %4, ptr noundef %24, ptr noundef %23) #7
  %27 = icmp eq ptr %26, null
  br i1 %27, label %d2i_OSSL_CMP_MSG_bio.exit._crit_edge, label %31

d2i_OSSL_CMP_MSG_bio.exit._crit_edge:             ; preds = %d2i_OSSL_CMP_MSG_bio.exit
  %.pre = load ptr, ptr %4, align 8, !tbaa !121
  br label %28

28:                                               ; preds = %d2i_OSSL_CMP_MSG_bio.exit._crit_edge, %20
  %29 = phi ptr [ %.pre, %d2i_OSSL_CMP_MSG_bio.exit._crit_edge ], [ %9, %20 ]
  %30 = call ptr @OSSL_CMP_MSG_it() #7
  call void @ASN1_item_free(ptr noundef %29, ptr noundef %30) #7
  store ptr null, ptr %4, align 8, !tbaa !121
  br label %31

31:                                               ; preds = %28, %d2i_OSSL_CMP_MSG_bio.exit
  %32 = call i32 @BIO_free(ptr noundef %21) #7
  %33 = load ptr, ptr %4, align 8, !tbaa !121
  br label %34

34:                                               ; preds = %31, %19, %6
  %.0 = phi ptr [ null, %6 ], [ null, %19 ], [ %33, %31 ]
  call void @llvm.lifetime.end.p0(i64 8, ptr nonnull %4) #7
  ret ptr %.0
}